target datalayout = "e-m:e-p270:32:32-p271:32:32-p272:64:64-i64:64-i128:128-f80:128-n8:16:32:64-S128"
target triple = "x86_64-pc-linux-gnu"

@proto_register_thread_nwd.ett = internal global [6 x ptr] [ptr @ett_thread_nwd, ptr @ett_thread_nwd_tlv, ptr @ett_thread_nwd_has_route, ptr @ett_thread_nwd_6co_flag, ptr @ett_thread_nwd_border_router, ptr @ett_thread_nwd_prefix_sub_tlvs], align 16
@.str.342 = private unnamed_addr constant [20 x i8] c"Thread Network Data\00", align 1
@.str.343 = private unnamed_addr constant [11 x i8] c"Thread NWD\00", align 1
@.str.344 = private unnamed_addr constant [11 x i8] c"thread_nwd\00", align 1
@proto_thread_nwd = internal global i32 0, align 4
@thread_address_nwd_handle = internal global ptr null, align 8

; Function Attrs: null_pointer_is_valid sspstrong uwtable
define hidden void @proto_register_thread_nwd() #0 {
  %1 = alloca ptr, align 8
  call void @llvm.lifetime.start.p0(i64 8, ptr %1) #9
  %2 = call i32 @proto_register_protocol(ptr noundef @.str.342, ptr noundef @.str.343, ptr noundef @.str.344)
  store i32 %2, ptr @proto_thread_nwd, align 4
  %3 = load i32, ptr @proto_thread_nwd, align 4
  call void @proto_register_field_array(i32 noundef %3, ptr noundef @proto_register_thread_nwd.hf, i32 noundef 44)
  call void @proto_register_subtree_array(ptr noundef @proto_register_thread_nwd.ett, i32 noundef 6)
  %4 = load i32, ptr @proto_thread_nwd, align 4
  %5 = call ptr @expert_register_protocol(i32 noundef %4)
  store ptr %5, ptr %1, align 8
  %6 = load ptr, ptr %1, align 8
  call void @expert_register_field_array(ptr noundef %6, ptr noundef @proto_register_thread_nwd.ei, i32 noundef 1)
  %7 = load i32, ptr @proto_thread_nwd, align 4
  %8 = call ptr @register_dissector(ptr noundef @.str.344, ptr noundef @dissect_thread_nwd, i32 noundef %7)
  store ptr %8, ptr @thread_address_nwd_handle, align 8
  call void @llvm.lifetime.end.p0(i64 8, ptr %1) #9
  ret void
}