; Function Attrs: null_pointer_is_valid sspstrong uwtable
define hidden void @proto_register_thread_nwd() local_unnamed_addr #0 {
  %1 = tail call i32 @proto_register_protocol(ptr noundef nonnull @.str.342, ptr noundef nonnull @.str.343, ptr noundef nonnull @.str.344)
  store i32 %1, ptr @proto_thread_nwd, align 4
  tail call void @proto_register_field_array(i32 noundef %1, ptr noundef nonnull @proto_register_thread_nwd.hf, i32 noundef 44)
  tail call void @proto_register_subtree_array(ptr noundef nonnull @proto_register_thread_nwd.ett, i32 noundef 6)
  %2 = load i32, ptr @proto_thread_nwd, align 4
  %3 = tail call ptr @expert_register_protocol(i32 noundef %2)
  tail call void @expert_register_field_array(ptr noundef %3, ptr noundef nonnull @proto_register_thread_nwd.ei, i32 noundef 1)
  %4 = load i32, ptr @proto_thread_nwd, align 4
  %5 = tail call ptr @register_dissector(ptr noundef nonnull @.str.344, ptr noundef nonnull @dissect_thread_nwd, i32 noundef %4)
  store ptr %5, ptr @thread_address_nwd_handle, align 8
  ret void
}